target datalayout = "e-m:e-p270:32:32-p271:32:32-p272:64:64-i64:64-i128:128-f80:128-n8:16:32:64-S128"
target triple = "x86_64-pc-linux-gnu"

@.str.9 = private unnamed_addr constant [11 x i8] c"scrontab.c\00", align 1
@__func__._read_fd = private unnamed_addr constant [9 x i8] c"_read_fd\00", align 1

; Function Attrs: nounwind uwtable
define internal ptr @_read_fd(i32 noundef %0) #0 {
  %2 = alloca i32, align 4
  %3 = alloca ptr, align 8
  %4 = alloca ptr, align 8
  %5 = alloca i32, align 4
  %6 = alloca i64, align 8
  %7 = alloca i64, align 8
  %8 = alloca i64, align 8
  store i32 %0, ptr %2, align 4
  call void @llvm.lifetime.start.p0(i64 8, ptr %3) #11
  call void @llvm.lifetime.start.p0(i64 8, ptr %4) #11
  call void @llvm.lifetime.start.p0(i64 4, ptr %5) #11
  store i32 4096, ptr %5, align 4
  call void @llvm.lifetime.start.p0(i64 8, ptr %6) #11
  call void @llvm.lifetime.start.p0(i64 8, ptr %7) #11
  store i64 0, ptr %7, align 8
  call void @llvm.lifetime.start.p0(i64 8, ptr %8) #11
  %9 = load i32, ptr %5, align 4
  %10 = sext i32 %9 to i64
  %11 = call ptr @slurm_xcalloc(i64 noundef 1, i64 noundef %10, i1 noundef zeroext true, i1 noundef zeroext false, ptr noundef @.str.9, i32 noundef 221, ptr noundef @__func__._read_fd)
  store ptr %11, ptr %4, align 8
  store ptr %11, ptr %3, align 8
  %12 = load i32, ptr %5, align 4
  %13 = sext i32 %12 to i64
  store i64 %13, ptr %6, align 8
  br label %14

14:                                               ; preds = %35, %1
  %15 = load i32, ptr %2, align 4
  %16 = load ptr, ptr %4, align 8
  %17 = load i64, ptr %6, align 8
  %18 = call i64 @read(i32 noundef %15, ptr noundef %16, i64 noundef %17)
  store i64 %18, ptr %8, align 8
  %19 = icmp sgt i64 %18, 0
  br i1 %19, label %20, label %43

20:                                               ; preds = %14
  %21 = load i64, ptr %8, align 8
  %22 = load i64, ptr %6, align 8
  %23 = sub i64 %22, %21
  store i64 %23, ptr %6, align 8
  %24 = load i64, ptr %8, align 8
  %25 = load i64, ptr %7, align 8
  %26 = add nsw i64 %25, %24
  store i64 %26, ptr %7, align 8
  %27 = load i64, ptr %6, align 8
  %28 = icmp eq i64 %27, 0
  br i1 %28, label %29, label %35

29:                                               ; preds = %20
  %30 = load i32, ptr %5, align 4
  %31 = add nsw i32 %30, 8192
  store i32 %31, ptr %5, align 4
  %32 = load i32, ptr %5, align 4
  %33 = sext i32 %32 to i64
  %34 = call ptr @slurm_xrecalloc(ptr noundef %3, i64 noundef 1, i64 noundef %33, i1 noundef zeroext true, i1 noundef zeroext false, ptr noundef @.str.9, i32 noundef 229, ptr noundef @__func__._read_fd)
  br label %35

35:                                               ; preds = %29, %20
  %36 = load ptr, ptr %3, align 8
  %37 = load i64, ptr %7, align 8
  %38 = getelementptr inbounds i8, ptr %36, i64 %37
  store ptr %38, ptr %4, align 8
  %39 = load i32, ptr %5, align 4
  %40 = sext i32 %39 to i64
  %41 = load i64, ptr %7, align 8
  %42 = sub nsw i64 %40, %41
  store i64 %42, ptr %6, align 8
  br label %14, !llvm.loop !19

43:                                               ; preds = %14
  %44 = load ptr, ptr %3, align 8
  call void @llvm.lifetime.end.p0(i64 8, ptr %8) #11
  call void @llvm.lifetime.end.p0(i64 8, ptr %7) #11
  call void @llvm.lifetime.end.p0(i64 8, ptr %6) #11
  call void @llvm.lifetime.end.p0(i64 4, ptr %5) #11
  call void @llvm.lifetime.end.p0(i64 8, ptr %4) #11
  call void @llvm.lifetime.end.p0(i64 8, ptr %3) #11
  ret ptr %44
}