; Function Attrs: nounwind uwtable
define internal fastcc ptr @_read_fd(i32 noundef range(i32 0, -2147483648) %0) unnamed_addr #1 {
  %2 = alloca ptr, align 8
  call void @llvm.lifetime.start.p0(i64 8, ptr nonnull %2) #16
  %3 = tail call ptr @slurm_xcalloc(i64 noundef 1, i64 noundef 4096, i1 noundef zeroext true, i1 noundef zeroext false, ptr noundef nonnull @.str.9, i32 noundef 221, ptr noundef nonnull @__func__._read_fd) #16
  store ptr %3, ptr %2, align 8
  %4 = tail call i64 @read(i32 noundef %0, ptr noundef %3, i64 noundef 4096) #16
  %5 = icmp sgt i64 %4, 0
  br i1 %5, label %.lr.ph, label %._crit_edge

.lr.ph:                                           ; preds = %1, %13
  %6 = phi i64 [ %17, %13 ], [ %4, %1 ]
  %.01420 = phi i64 [ %7, %13 ], [ 0, %1 ]
  %.01519 = phi i64 [ %16, %13 ], [ 4096, %1 ]
  %.01618 = phi i32 [ %.1, %13 ], [ 4096, %1 ]
  %7 = add nuw nsw i64 %6, %.01420
  %8 = icmp eq i64 %.01519, %6
  br i1 %8, label %9, label %.lr.ph._crit_edge

.lr.ph._crit_edge:                                ; preds = %.lr.ph
  %.pre21 = sext i32 %.01618 to i64
  br label %13

9:                                                ; preds = %.lr.ph
  %10 = add nsw i32 %.01618, 8192
  %11 = sext i32 %10 to i64
  %12 = call ptr @slurm_xrecalloc(ptr noundef nonnull %2, i64 noundef 1, i64 noundef %11, i1 noundef zeroext true, i1 noundef zeroext false, ptr noundef nonnull @.str.9, i32 noundef 229, ptr noundef nonnull @__func__._read_fd) #16
  br label %13

13:                                               ; preds = %.lr.ph._crit_edge, %9
  %.pre-phi = phi i64 [ %.pre21, %.lr.ph._crit_edge ], [ %11, %9 ]
  %.1 = phi i32 [ %.01618, %.lr.ph._crit_edge ], [ %10, %9 ]
  %14 = load ptr, ptr %2, align 8
  %15 = getelementptr inbounds nuw i8, ptr %14, i64 %7
  %16 = sub nsw i64 %.pre-phi, %7
  %17 = call i64 @read(i32 noundef %0, ptr noundef nonnull %15, i64 noundef %16) #16
  %18 = icmp sgt i64 %17, 0
  br i1 %18, label %.lr.ph, label %._crit_edge.loopexit, !llvm.loop !17

._crit_edge.loopexit:                             ; preds = %13
  %.pre = load ptr, ptr %2, align 8
  br label %._crit_edge

._crit_edge:                                      ; preds = %._crit_edge.loopexit, %1
  %19 = phi ptr [ %.pre, %._crit_edge.loopexit ], [ %3, %1 ]
  call void @llvm.lifetime.end.p0(i64 8, ptr nonnull %2) #16
  ret ptr %19
}